; Function Attrs: nounwind uwtable
define void @Gia_CollectSuper_rec(ptr noundef readonly captures(none) %0, ptr noundef %1, ptr noundef captures(none) %2) local_unnamed_addr #0 {
  %4 = ptrtoint ptr %1 to i64
  %5 = and i64 %4, 1
  %.not15 = icmp eq i64 %5, 0
  br i1 %.not15, label %.lr.ph.preheader, label %._crit_edge

.lr.ph.preheader:                                 ; preds = %3
  %.val18 = load i64, ptr %1, align 4
  %6 = and i64 %.val18, 2684354559
  %narrow.i.not19 = icmp eq i64 %6, 2684354559
  br i1 %narrow.i.not19, label %._crit_edge, label %tailrecurse

.lr.ph:                                           ; preds = %tailrecurse
  %7 = inttoptr i64 %70 to ptr
  %.val = load i64, ptr %7, align 4
  %8 = and i64 %.val, 2684354559
  %narrow.i.not = icmp eq i64 %8, 2684354559
  br i1 %narrow.i.not, label %._crit_edge, label %tailrecurse

._crit_edge:                                      ; preds = %.lr.ph, %tailrecurse, %.lr.ph.preheader, %3
  %.lcssa = phi i64 [ %4, %3 ], [ %4, %.lr.ph.preheader ], [ %70, %tailrecurse ], [ %70, %.lr.ph ]
  %9 = and i64 %.lcssa, -2
  %10 = getelementptr i8, ptr %0, i64 32
  %.val12 = load ptr, ptr %10, align 8, !tbaa !3
  %11 = ptrtoint ptr %.val12 to i64
  %12 = sub i64 %9, %11
  %13 = sdiv exact i64 %12, 12
  %14 = trunc i64 %13 to i32
  %15 = getelementptr inbounds nuw i8, ptr %2, i64 4
  %16 = load i32, ptr %15, align 4, !tbaa !28
  %17 = icmp sgt i32 %16, 0
  br i1 %17, label %.lr.ph.i, label %._crit_edge.i

.lr.ph.i:                                         ; preds = %._crit_edge
  %18 = getelementptr inbounds nuw i8, ptr %2, i64 8
  %19 = load ptr, ptr %18, align 8, !tbaa !29
  %wide.trip.count.i = zext nneg i32 %16 to i64
  br label %21

20:                                               ; preds = %21
  %indvars.iv.next.i = add nuw nsw i64 %indvars.iv.i, 1
  %exitcond.not.i = icmp eq i64 %indvars.iv.next.i, %wide.trip.count.i
  br i1 %exitcond.not.i, label %._crit_edge.i, label %21, !llvm.loop !30

21:                                               ; preds = %20, %.lr.ph.i
  %indvars.iv.i = phi i64 [ 0, %.lr.ph.i ], [ %indvars.iv.next.i, %20 ]
  %22 = getelementptr inbounds nuw i32, ptr %19, i64 %indvars.iv.i
  %23 = load i32, ptr %22, align 4, !tbaa !32
  %24 = icmp eq i32 %23, %14
  br i1 %24, label %Vec_IntPushUnique.exit, label %20

._crit_edge.i:                                    ; preds = %20, %._crit_edge
  %25 = load i32, ptr %2, align 8, !tbaa !33
  %26 = icmp eq i32 %16, %25
  br i1 %26, label %27, label %.Vec_IntGrow.exit10_crit_edge.i.i

.Vec_IntGrow.exit10_crit_edge.i.i:                ; preds = %._crit_edge.i
  %.phi.trans.insert.i.i = getelementptr inbounds nuw i8, ptr %2, i64 8
  %.pre.i.i = load ptr, ptr %.phi.trans.insert.i.i, align 8, !tbaa !29
  br label %Vec_IntPush.exit.i

27:                                               ; preds = %._crit_edge.i
  %28 = icmp slt i32 %16, 16
  br i1 %28, label %29, label %37

29:                                               ; preds = %27
  %30 = getelementptr inbounds nuw i8, ptr %2, i64 8
  %31 = load ptr, ptr %30, align 8, !tbaa !29
  %.not9.i.i.i = icmp eq ptr %31, null
  br i1 %.not9.i.i.i, label %34, label %32

32:                                               ; preds = %29
  %33 = tail call dereferenceable_or_null(64) ptr @realloc(ptr noundef nonnull %31, i64 noundef 64) #15
  br label %Vec_IntGrow.exit.i.i

34:                                               ; preds = %29
  %35 = tail call noalias dereferenceable_or_null(64) ptr @malloc(i64 noundef 64) #16
  br label %Vec_IntGrow.exit.i.i

Vec_IntGrow.exit.i.i:                             ; preds = %34, %32
  %36 = phi ptr [ %33, %32 ], [ %35, %34 ]
  store ptr %36, ptr %30, align 8, !tbaa !29
  store i32 16, ptr %2, align 8, !tbaa !33
  br label %Vec_IntPush.exit.i

37:                                               ; preds = %27
  %38 = shl nuw nsw i32 %16, 1
  %39 = getelementptr inbounds nuw i8, ptr %2, i64 8
  %40 = load ptr, ptr %39, align 8, !tbaa !29
  %.not9.i9.i.i = icmp eq ptr %40, null
  %41 = zext nneg i32 %38 to i64
  %42 = shl nuw nsw i64 %41, 2
  br i1 %.not9.i9.i.i, label %45, label %43

43:                                               ; preds = %37
  %44 = tail call ptr @realloc(ptr noundef nonnull %40, i64 noundef %42) #15
  br label %47

45:                                               ; preds = %37
  %46 = tail call noalias ptr @malloc(i64 noundef %42) #16
  br label %47

47:                                               ; preds = %45, %43
  %48 = phi ptr [ %44, %43 ], [ %46, %45 ]
  store ptr %48, ptr %39, align 8, !tbaa !29
  store i32 %38, ptr %2, align 8, !tbaa !33
  br label %Vec_IntPush.exit.i

Vec_IntPush.exit.i:                               ; preds = %47, %Vec_IntGrow.exit.i.i, %.Vec_IntGrow.exit10_crit_edge.i.i
  %49 = phi ptr [ %.pre.i.i, %.Vec_IntGrow.exit10_crit_edge.i.i ], [ %48, %47 ], [ %36, %Vec_IntGrow.exit.i.i ]
  %50 = load i32, ptr %15, align 4, !tbaa !28
  %51 = add nsw i32 %50, 1
  store i32 %51, ptr %15, align 4, !tbaa !28
  %52 = sext i32 %50 to i64
  %53 = getelementptr inbounds i32, ptr %49, i64 %52
  store i32 %14, ptr %53, align 4, !tbaa !32
  br label %Vec_IntPushUnique.exit

tailrecurse:                                      ; preds = %.lr.ph.preheader, %.lr.ph
  %.val21 = phi i64 [ %.val, %.lr.ph ], [ %.val18, %.lr.ph.preheader ]
  %.tr131620 = phi ptr [ %7, %.lr.ph ], [ %1, %.lr.ph.preheader ]
  %54 = and i64 %.val21, 536870911
  %55 = sub nsw i64 0, %54
  %56 = getelementptr inbounds %struct.Gia_Obj_t_, ptr %.tr131620, i64 %55
  %57 = lshr i64 %.val21, 29
  %58 = and i64 %57, 1
  %59 = ptrtoint ptr %56 to i64
  %60 = or disjoint i64 %58, %59
  %61 = inttoptr i64 %60 to ptr
  tail call void @Gia_CollectSuper_rec(ptr noundef %0, ptr noundef nonnull %61, ptr noundef %2)
  %62 = load i64, ptr %.tr131620, align 4
  %63 = lshr i64 %62, 32
  %64 = and i64 %63, 536870911
  %65 = sub nsw i64 0, %64
  %66 = getelementptr inbounds %struct.Gia_Obj_t_, ptr %.tr131620, i64 %65
  %67 = lshr i64 %62, 61
  %68 = and i64 %67, 1
  %69 = ptrtoint ptr %66 to i64
  %70 = or disjoint i64 %68, %69
  %71 = and i64 %70, 1
  %.not = icmp eq i64 %71, 0
  br i1 %.not, label %.lr.ph, label %._crit_edge

Vec_IntPushUnique.exit:                           ; preds = %21, %Vec_IntPush.exit.i
  ret void
}